target datalayout = "e-m:e-p270:32:32-p271:32:32-p272:64:64-i64:64-i128:128-f80:128-n8:16:32:64-S128"
target triple = "x86_64-pc-linux-gnu"

%class.btSpinMutex = type { i32 }
%class.btDiscreteDynamicsWorld = type <{ %class.btDynamicsWorld, %class.btAlignedObjectArray.12, ptr, ptr, ptr, %class.btAlignedObjectArray.12, %class.btAlignedObjectArray.14, %class.btVector3, float, float, i8, i8, i8, i8, [4 x i8], %class.btAlignedObjectArray.16, i32, i8, [3 x i8], %class.btAlignedObjectArray.18, %class.btSpinMutex, [4 x i8] }>
%class.btDynamicsWorld = type { %class.btCollisionWorld.base, ptr, ptr, ptr, %struct.btContactSolverInfo }
%class.btCollisionWorld.base = type <{ ptr, %class.btAlignedObjectArray.10, ptr, %struct.btDispatcherInfo, ptr, ptr, i8 }>
%class.btAlignedObjectArray.10 = type <{ [4 x i8], i32, i32, [4 x i8], ptr, i8, [7 x i8] }>
%struct.btDispatcherInfo = type <{ float, i32, i32, float, i8, [7 x i8], ptr, i8, i8, i8, i8, float, i8, [3 x i8], float, i8, [7 x i8] }>
%struct.btContactSolverInfo = type { %struct.btContactSolverInfoData }
%struct.btContactSolverInfoData = type { float, float, float, float, float, i32, float, float, float, float, float, float, float, float, float, float, i32, float, float, float, float, float, i32, i32, i32, float, float, float, float, i8, i8, i32, i32 }
%class.btAlignedObjectArray.12 = type <{ [4 x i8], i32, i32, [4 x i8], ptr, i8, [7 x i8] }>
%class.btAlignedObjectArray.14 = type <{ [4 x i8], i32, i32, [4 x i8], ptr, i8, [7 x i8] }>
%class.btVector3 = type { [4 x float] }
%class.btAlignedObjectArray.16 = type <{ [4 x i8], i32, i32, [4 x i8], ptr, i8, [7 x i8] }>
%class.btAlignedObjectArray.18 = type <{ [4 x i8], i32, i32, [4 x i8], ptr, i8, [7 x i8] }>
%class.btDiscreteDynamicsWorldMt = type { %class.btDiscreteDynamicsWorld.base, ptr }
%class.btDiscreteDynamicsWorld.base = type <{ %class.btDynamicsWorld, %class.btAlignedObjectArray.12, ptr, ptr, ptr, %class.btAlignedObjectArray.12, %class.btAlignedObjectArray.14, %class.btVector3, float, float, i8, i8, i8, i8, [4 x i8], %class.btAlignedObjectArray.16, i32, i8, [3 x i8], %class.btAlignedObjectArray.18, %class.btSpinMutex }>
%class.CProfileSample = type { i8 }
%"struct.btSimulationIslandManagerMt::SolverParams" = type { ptr, ptr, ptr, ptr, ptr }
%class.btCollisionWorld = type <{ ptr, %class.btAlignedObjectArray.10, ptr, %struct.btDispatcherInfo, ptr, ptr, i8, [7 x i8] }>

@.str = private unnamed_addr constant [17 x i8] c"solveConstraints\00", align 1

; Function Attrs: inlinehint mustprogress nounwind uwtable
define linkonce_odr dso_local noundef i32 @_ZNK20btAlignedObjectArrayIP17btCollisionObjectE4sizeEv(ptr noundef nonnull align 8 dereferenceable(25) %0) #4 comdat align 2 {
  %2 = alloca ptr, align 8
  store ptr %0, ptr %2, align 8, !tbaa !159
  %3 = load ptr, ptr %2, align 8
  %4 = getelementptr inbounds nuw %class.btAlignedObjectArray.10, ptr %3, i32 0, i32 1
  %5 = load i32, ptr %4, align 4, !tbaa !161
  ret i32 %5
}

; Function Attrs: mustprogress nounwind uwtable
define linkonce_odr dso_local noundef ptr @_ZN16btCollisionWorld13getDispatcherEv(ptr noundef nonnull align 8 dereferenceable(121) %0) #1 comdat align 2 {
  %2 = alloca ptr, align 8
  store ptr %0, ptr %2, align 8, !tbaa !126
  %3 = load ptr, ptr %2, align 8
  %4 = getelementptr inbounds nuw %class.btCollisionWorld, ptr %3, i32 0, i32 2
  %5 = load ptr, ptr %4, align 8, !tbaa !128
  ret ptr %5
}

; Function Attrs: mustprogress uwtable
define linkonce_odr dso_local noundef i32 @_ZNK16btCollisionWorld22getNumCollisionObjectsEv(ptr noundef nonnull align 8 dereferenceable(121) %0) #2 comdat align 2 {
  %2 = alloca ptr, align 8
  store ptr %0, ptr %2, align 8, !tbaa !126
  %3 = load ptr, ptr %2, align 8
  %4 = getelementptr inbounds nuw %class.btCollisionWorld, ptr %3, i32 0, i32 1
  %5 = call noundef i32 @_ZNK20btAlignedObjectArrayIP17btCollisionObjectE4sizeEv(ptr noundef nonnull align 8 dereferenceable(25) %4)
  ret i32 %5
}

; Function Attrs: mustprogress nounwind uwtable
define linkonce_odr dso_local noundef ptr @_ZN23btDiscreteDynamicsWorld17getCollisionWorldEv(ptr noundef nonnull align 8 dereferenceable(508) %0) #1 comdat align 2 {
  %2 = alloca ptr, align 8
  store ptr %0, ptr %2, align 8, !tbaa !124
  %3 = load ptr, ptr %2, align 8
  ret ptr %3
}

; Function Attrs: mustprogress uwtable
define dso_local void @_ZN25btDiscreteDynamicsWorldMt16solveConstraintsER19btContactSolverInfo(ptr noundef nonnull align 8 dereferenceable(520) %0, ptr noundef nonnull align 4 dereferenceable(128) %1) unnamed_addr #2 align 2 personality ptr @__gxx_personality_v0 {
  %3 = alloca ptr, align 8
  %4 = alloca ptr, align 8
  %5 = alloca %class.CProfileSample, align 1
  %6 = alloca ptr, align 8
  %7 = alloca i32, align 4
  %8 = alloca ptr, align 8
  %9 = alloca %"struct.btSimulationIslandManagerMt::SolverParams", align 8
  store ptr %0, ptr %3, align 8, !tbaa !68
  store ptr %1, ptr %4, align 8, !tbaa !61
  %10 = load ptr, ptr %3, align 8
  call void @llvm.lifetime.start.p0(i64 1, ptr %5) #13
  call void @_ZN14CProfileSampleC1EPKc(ptr noundef nonnull align 1 dereferenceable(1) %5, ptr noundef @.str)
  %11 = getelementptr inbounds nuw %class.btDiscreteDynamicsWorld, ptr %10, i32 0, i32 3
  %12 = load ptr, ptr %11, align 8, !tbaa !116
  %13 = invoke noundef ptr @_ZN23btDiscreteDynamicsWorld17getCollisionWorldEv(ptr noundef nonnull align 8 dereferenceable(508) %10)
          to label %14 unwind label %69

14:                                               ; preds = %2
  %15 = invoke noundef i32 @_ZNK16btCollisionWorld22getNumCollisionObjectsEv(ptr noundef nonnull align 8 dereferenceable(121) %13)
          to label %16 unwind label %69

16:                                               ; preds = %14
  %17 = invoke noundef ptr @_ZN23btDiscreteDynamicsWorld17getCollisionWorldEv(ptr noundef nonnull align 8 dereferenceable(508) %10)
          to label %18 unwind label %69

18:                                               ; preds = %16
  %19 = invoke noundef ptr @_ZN16btCollisionWorld13getDispatcherEv(ptr noundef nonnull align 8 dereferenceable(121) %17)
          to label %20 unwind label %69

20:                                               ; preds = %18
  %21 = load ptr, ptr %19, align 8, !tbaa !37
  %22 = getelementptr inbounds ptr, ptr %21, i64 9
  %23 = load ptr, ptr %22, align 8
  %24 = invoke noundef i32 %23(ptr noundef nonnull align 8 dereferenceable(8) %19)
          to label %25 unwind label %69

25:                                               ; preds = %20
  %26 = load ptr, ptr %12, align 8, !tbaa !37
  %27 = getelementptr inbounds ptr, ptr %26, i64 2
  %28 = load ptr, ptr %27, align 8
  invoke void %28(ptr noundef nonnull align 8 dereferenceable(8) %12, i32 noundef %15, i32 noundef %24)
          to label %29 unwind label %69

29:                                               ; preds = %25
  call void @llvm.lifetime.start.p0(i64 8, ptr %8) #13
  %30 = getelementptr inbounds nuw %class.btDiscreteDynamicsWorld, ptr %10, i32 0, i32 4
  %31 = load ptr, ptr %30, align 8, !tbaa !99
  store ptr %31, ptr %8, align 8, !tbaa !100
  call void @llvm.lifetime.start.p0(i64 40, ptr %9) #13
  %32 = getelementptr inbounds nuw %class.btDiscreteDynamicsWorld, ptr %10, i32 0, i32 3
  %33 = load ptr, ptr %32, align 8, !tbaa !116
  %34 = getelementptr inbounds nuw %"struct.btSimulationIslandManagerMt::SolverParams", ptr %9, i32 0, i32 0
  store ptr %33, ptr %34, align 8, !tbaa !117
  %35 = getelementptr inbounds nuw %class.btDiscreteDynamicsWorldMt, ptr %10, i32 0, i32 1
  %36 = load ptr, ptr %35, align 8, !tbaa !103
  %37 = getelementptr inbounds nuw %"struct.btSimulationIslandManagerMt::SolverParams", ptr %9, i32 0, i32 1
  store ptr %36, ptr %37, align 8, !tbaa !119
  %38 = load ptr, ptr %4, align 8, !tbaa !61
  %39 = getelementptr inbounds nuw %"struct.btSimulationIslandManagerMt::SolverParams", ptr %9, i32 0, i32 2
  store ptr %38, ptr %39, align 8, !tbaa !120
  %40 = getelementptr inbounds nuw %class.btCollisionWorld, ptr %10, i32 0, i32 5
  %41 = load ptr, ptr %40, align 8, !tbaa !121
  %42 = getelementptr inbounds nuw %"struct.btSimulationIslandManagerMt::SolverParams", ptr %9, i32 0, i32 3
  store ptr %41, ptr %42, align 8, !tbaa !122
  %43 = invoke noundef ptr @_ZN23btDiscreteDynamicsWorld17getCollisionWorldEv(ptr noundef nonnull align 8 dereferenceable(508) %10)
          to label %44 unwind label %73

44:                                               ; preds = %29
  %45 = invoke noundef ptr @_ZN16btCollisionWorld13getDispatcherEv(ptr noundef nonnull align 8 dereferenceable(121) %43)
          to label %46 unwind label %73

46:                                               ; preds = %44
  %47 = getelementptr inbounds nuw %"struct.btSimulationIslandManagerMt::SolverParams", ptr %9, i32 0, i32 4
  store ptr %45, ptr %47, align 8, !tbaa !123
  %48 = load ptr, ptr %8, align 8, !tbaa !100
  %49 = invoke noundef ptr @_ZN23btDiscreteDynamicsWorld17getCollisionWorldEv(ptr noundef nonnull align 8 dereferenceable(508) %10)
          to label %50 unwind label %73

50:                                               ; preds = %46
  %51 = invoke noundef ptr @_ZN16btCollisionWorld13getDispatcherEv(ptr noundef nonnull align 8 dereferenceable(121) %49)
          to label %52 unwind label %73

52:                                               ; preds = %50
  %53 = invoke noundef ptr @_ZN23btDiscreteDynamicsWorld17getCollisionWorldEv(ptr noundef nonnull align 8 dereferenceable(508) %10)
          to label %54 unwind label %73

54:                                               ; preds = %52
  %55 = getelementptr inbounds nuw %class.btDiscreteDynamicsWorld, ptr %10, i32 0, i32 5
  %56 = load ptr, ptr %48, align 8, !tbaa !37
  %57 = getelementptr inbounds ptr, ptr %56, i64 10
  %58 = load ptr, ptr %57, align 8
  invoke void %58(ptr noundef nonnull align 8 dereferenceable(264) %48, ptr noundef %51, ptr noundef %53, ptr noundef nonnull align 8 dereferenceable(25) %55, ptr noundef nonnull align 8 dereferenceable(40) %9)
          to label %59 unwind label %73

59:                                               ; preds = %54
  %60 = getelementptr inbounds nuw %class.btDiscreteDynamicsWorld, ptr %10, i32 0, i32 3
  %61 = load ptr, ptr %60, align 8, !tbaa !116
  %62 = load ptr, ptr %4, align 8, !tbaa !61
  %63 = getelementptr inbounds nuw %class.btCollisionWorld, ptr %10, i32 0, i32 5
  %64 = load ptr, ptr %63, align 8, !tbaa !121
  %65 = load ptr, ptr %61, align 8, !tbaa !37
  %66 = getelementptr inbounds ptr, ptr %65, i64 4
  %67 = load ptr, ptr %66, align 8
  invoke void %67(ptr noundef nonnull align 8 dereferenceable(8) %61, ptr noundef nonnull align 4 dereferenceable(128) %62, ptr noundef %64)
          to label %68 unwind label %73

68:                                               ; preds = %59
  call void @llvm.lifetime.end.p0(i64 40, ptr %9) #13
  call void @llvm.lifetime.end.p0(i64 8, ptr %8) #13
  call void @_ZN14CProfileSampleD1Ev(ptr noundef nonnull align 1 dereferenceable(1) %5) #13
  call void @llvm.lifetime.end.p0(i64 1, ptr %5) #13
  ret void

69:                                               ; preds = %25, %20, %18, %16, %14, %2
  %70 = landingpad { ptr, i32 }
          cleanup
  %71 = extractvalue { ptr, i32 } %70, 0
  store ptr %71, ptr %6, align 8
  %72 = extractvalue { ptr, i32 } %70, 1
  store i32 %72, ptr %7, align 4
  br label %77

73:                                               ; preds = %59, %54, %52, %50, %46, %44, %29
  %74 = landingpad { ptr, i32 }
          cleanup
  %75 = extractvalue { ptr, i32 } %74, 0
  store ptr %75, ptr %6, align 8
  %76 = extractvalue { ptr, i32 } %74, 1
  store i32 %76, ptr %7, align 4
  call void @llvm.lifetime.end.p0(i64 40, ptr %9) #13
  call void @llvm.lifetime.end.p0(i64 8, ptr %8) #13
  br label %77

77:                                               ; preds = %73, %69
  call void @_ZN14CProfileSampleD1Ev(ptr noundef nonnull align 1 dereferenceable(1) %5) #13
  call void @llvm.lifetime.end.p0(i64 1, ptr %5) #13
  br label %78

78:                                               ; preds = %77
  %79 = load ptr, ptr %6, align 8
  %80 = load i32, ptr %7, align 4
  %81 = insertvalue { ptr, i32 } poison, ptr %79, 0
  %82 = insertvalue { ptr, i32 } %81, i32 %80, 1
  resume { ptr, i32 } %82
}