; Function Attrs: mustprogress uwtable
define dso_local void @_ZN25btDiscreteDynamicsWorldMt16solveConstraintsER19btContactSolverInfo(ptr noundef nonnull align 8 dereferenceable(520) %0, ptr noundef nonnull align 4 dereferenceable(128) %1) unnamed_addr #0 align 2 personality ptr @__gxx_personality_v0 {
  %3 = alloca %class.CProfileSample, align 1
  %4 = alloca %"struct.btSimulationIslandManagerMt::SolverParams", align 8
  call void @llvm.lifetime.start.p0(i64 1, ptr nonnull %3) #11
  call void @_ZN14CProfileSampleC1EPKc(ptr noundef nonnull align 1 dereferenceable(1) %3, ptr noundef nonnull @.str)
  %5 = getelementptr inbounds nuw i8, ptr %0, i64 320
  %6 = load ptr, ptr %5, align 8, !tbaa !91
  %7 = getelementptr inbounds nuw i8, ptr %0, i64 12
  %8 = load i32, ptr %7, align 4, !tbaa !92
  %9 = getelementptr inbounds nuw i8, ptr %0, i64 40
  %10 = load ptr, ptr %9, align 8, !tbaa !93
  %11 = load ptr, ptr %10, align 8, !tbaa !34
  %12 = getelementptr inbounds nuw i8, ptr %11, i64 72
  %13 = load ptr, ptr %12, align 8
  %14 = invoke noundef i32 %13(ptr noundef nonnull align 8 dereferenceable(8) %10)
          to label %15 unwind label %43

15:                                               ; preds = %2
  %16 = load ptr, ptr %6, align 8, !tbaa !34
  %17 = getelementptr inbounds nuw i8, ptr %16, i64 16
  %18 = load ptr, ptr %17, align 8
  invoke void %18(ptr noundef nonnull align 8 dereferenceable(8) %6, i32 noundef %8, i32 noundef %14)
          to label %19 unwind label %43

19:                                               ; preds = %15
  %20 = getelementptr inbounds nuw i8, ptr %0, i64 328
  %21 = load ptr, ptr %20, align 8, !tbaa !76
  call void @llvm.lifetime.start.p0(i64 40, ptr nonnull %4) #11
  %22 = load ptr, ptr %5, align 8, !tbaa !91
  store ptr %22, ptr %4, align 8, !tbaa !94
  %23 = getelementptr inbounds nuw i8, ptr %0, i64 512
  %24 = load ptr, ptr %23, align 8, !tbaa !89
  %25 = getelementptr inbounds nuw i8, ptr %4, i64 8
  store ptr %24, ptr %25, align 8, !tbaa !97
  %26 = getelementptr inbounds nuw i8, ptr %4, i64 16
  store ptr %1, ptr %26, align 8, !tbaa !98
  %27 = getelementptr inbounds nuw i8, ptr %0, i64 112
  %28 = load ptr, ptr %27, align 8, !tbaa !99
  %29 = getelementptr inbounds nuw i8, ptr %4, i64 24
  store ptr %28, ptr %29, align 8, !tbaa !100
  %30 = load ptr, ptr %9, align 8, !tbaa !93
  %31 = getelementptr inbounds nuw i8, ptr %4, i64 32
  store ptr %30, ptr %31, align 8, !tbaa !101
  %32 = getelementptr inbounds nuw i8, ptr %0, i64 336
  %33 = load ptr, ptr %21, align 8, !tbaa !34
  %34 = getelementptr inbounds nuw i8, ptr %33, i64 80
  %35 = load ptr, ptr %34, align 8
  invoke void %35(ptr noundef nonnull align 8 dereferenceable(264) %21, ptr noundef %30, ptr noundef nonnull %0, ptr noundef nonnull align 8 dereferenceable(25) %32, ptr noundef nonnull align 8 dereferenceable(40) %4)
          to label %36 unwind label %45

36:                                               ; preds = %19
  %37 = load ptr, ptr %5, align 8, !tbaa !91
  %38 = load ptr, ptr %27, align 8, !tbaa !99
  %39 = load ptr, ptr %37, align 8, !tbaa !34
  %40 = getelementptr inbounds nuw i8, ptr %39, i64 32
  %41 = load ptr, ptr %40, align 8
  invoke void %41(ptr noundef nonnull align 8 dereferenceable(8) %37, ptr noundef nonnull align 4 dereferenceable(128) %1, ptr noundef %38)
          to label %42 unwind label %45

42:                                               ; preds = %36
  call void @llvm.lifetime.end.p0(i64 40, ptr nonnull %4) #11
  call void @_ZN14CProfileSampleD1Ev(ptr noundef nonnull align 1 dereferenceable(1) %3) #11
  call void @llvm.lifetime.end.p0(i64 1, ptr nonnull %3) #11
  ret void

43:                                               ; preds = %15, %2
  %44 = landingpad { ptr, i32 }
          cleanup
  br label %47

45:                                               ; preds = %36, %19
  %46 = landingpad { ptr, i32 }
          cleanup
  call void @llvm.lifetime.end.p0(i64 40, ptr nonnull %4) #11
  br label %47

47:                                               ; preds = %45, %43
  %.pn = phi { ptr, i32 } [ %46, %45 ], [ %44, %43 ]
  call void @_ZN14CProfileSampleD1Ev(ptr noundef nonnull align 1 dereferenceable(1) %3) #11
  call void @llvm.lifetime.end.p0(i64 1, ptr nonnull %3) #11
  resume { ptr, i32 } %.pn
}